target datalayout = "e-m:e-p270:32:32-p271:32:32-p272:64:64-i64:64-i128:128-f80:128-n8:16:32:64-S128"
target triple = "x86_64-pc-linux-gnu"

@.str = private unnamed_addr constant [98 x i8] c"generated/home/dtcxzyw/WorkSpace/Projects/compilers/llvm-opt-benchmark/bench/hdf5/hdf5/src/H5VL.c\00", align 1
@H5E_CANTSET_g = external global i64, align 8
@H5E_VOL_g = external global i64, align 8
@H5E_BADVALUE_g = external global i64, align 8
@__func__.H5VLopen_lib_context = private unnamed_addr constant [21 x i8] c"H5VLopen_lib_context\00", align 1
@.str.41 = private unnamed_addr constant [24 x i8] c"invalid context pointer\00", align 1
@.str.42 = private unnamed_addr constant [30 x i8] c"can't start new library state\00", align 1

; Function Attrs: nounwind uwtable
define i32 @H5VLopen_lib_context(ptr noundef %0) #0 {
  %2 = alloca ptr, align 8
  %3 = alloca i32, align 4
  %4 = alloca i8, align 1
  store ptr %0, ptr %2, align 8, !tbaa !28
  call void @llvm.lifetime.start.p0(i64 4, ptr %3) #6
  store i32 0, ptr %3, align 4, !tbaa !18
  call void @llvm.lifetime.start.p0(i64 1, ptr %4) #6
  store i8 0, ptr %4, align 1, !tbaa !12
  %5 = load ptr, ptr %2, align 8, !tbaa !28
  %6 = icmp eq ptr null, %5
  br i1 %6, label %7, label %26

7:                                                ; preds = %1
  br label %8

8:                                                ; preds = %7
  br label %9

9:                                                ; preds = %8
  br label %10

10:                                               ; preds = %9
  %11 = load i64, ptr @H5E_VOL_g, align 8, !tbaa !8
  %12 = load i64, ptr @H5E_BADVALUE_g, align 8, !tbaa !8
  %13 = call i32 (ptr, ptr, i32, i64, i64, ptr, ...) @H5E_printf_stack(ptr noundef @.str, ptr noundef @__func__.H5VLopen_lib_context, i32 noundef 781, i64 noundef %11, i64 noundef %12, ptr noundef @.str.41)
  br label %14

14:                                               ; preds = %10
  br label %15

15:                                               ; preds = %14
  store i8 1, ptr %4, align 1, !tbaa !12
  %16 = load i8, ptr %4, align 1, !tbaa !12, !range !14, !noundef !15
  %17 = trunc i8 %16 to i1
  %18 = zext i1 %17 to i8
  store i8 %18, ptr %4, align 1, !tbaa !12
  br label %19

19:                                               ; preds = %15
  br label %20

20:                                               ; preds = %19
  br label %21

21:                                               ; preds = %20
  store i32 -1, ptr %3, align 4, !tbaa !18
  br label %50

22:                                               ; No predecessors!
  br label %23

23:                                               ; preds = %22
  br label %24

24:                                               ; preds = %23
  br label %25

25:                                               ; preds = %24
  br label %26

26:                                               ; preds = %25, %1
  %27 = load ptr, ptr %2, align 8, !tbaa !28
  %28 = call i32 @H5VL_start_lib_state(ptr noundef %27)
  %29 = icmp slt i32 %28, 0
  br i1 %29, label %30, label %49

30:                                               ; preds = %26
  br label %31

31:                                               ; preds = %30
  br label %32

32:                                               ; preds = %31
  br label %33

33:                                               ; preds = %32
  %34 = load i64, ptr @H5E_VOL_g, align 8, !tbaa !8
  %35 = load i64, ptr @H5E_CANTSET_g, align 8, !tbaa !8
  %36 = call i32 (ptr, ptr, i32, i64, i64, ptr, ...) @H5E_printf_stack(ptr noundef @.str, ptr noundef @__func__.H5VLopen_lib_context, i32 noundef 785, i64 noundef %34, i64 noundef %35, ptr noundef @.str.42)
  br label %37

37:                                               ; preds = %33
  br label %38

38:                                               ; preds = %37
  store i8 1, ptr %4, align 1, !tbaa !12
  %39 = load i8, ptr %4, align 1, !tbaa !12, !range !14, !noundef !15
  %40 = trunc i8 %39 to i1
  %41 = zext i1 %40 to i8
  store i8 %41, ptr %4, align 1, !tbaa !12
  br label %42

42:                                               ; preds = %38
  br label %43

43:                                               ; preds = %42
  br label %44

44:                                               ; preds = %43
  store i32 -1, ptr %3, align 4, !tbaa !18
  br label %50

45:                                               ; No predecessors!
  br label %46

46:                                               ; preds = %45
  br label %47

47:                                               ; preds = %46
  br label %48

48:                                               ; preds = %47
  br label %49

49:                                               ; preds = %48, %26
  br label %50

50:                                               ; preds = %49, %44, %21
  %51 = load i8, ptr %4, align 1, !tbaa !12, !range !14, !noundef !15
  %52 = trunc i8 %51 to i1
  %53 = xor i1 %52, true
  %54 = xor i1 %53, true
  %55 = zext i1 %54 to i32
  %56 = sext i32 %55 to i64
  %57 = call i64 @llvm.expect.i64(i64 %56, i64 0)
  %58 = icmp ne i64 %57, 0
  br i1 %58, label %59, label %61

59:                                               ; preds = %50
  %60 = call i32 @H5E_dump_api_stack()
  br label %61

61:                                               ; preds = %59, %50
  %62 = load i32, ptr %3, align 4, !tbaa !18
  call void @llvm.lifetime.end.p0(i64 1, ptr %4) #6
  call void @llvm.lifetime.end.p0(i64 4, ptr %3) #6
  ret i32 %62
}